target datalayout = "e-m:e-p270:32:32-p271:32:32-p272:64:64-i64:64-i128:128-f80:128-n8:16:32:64-S128"
target triple = "x86_64-pc-linux-gnu"

%"class.pkpy::Compiler" = type { %"struct.pkpy::Lexer", %"class.pkpy::stack_no_copy.3", ptr, i8, i32, %"class.std::vector" }
%"struct.pkpy::Lexer" = type <{ ptr, %"class.std::shared_ptr", ptr, ptr, i32, [4 x i8], %"class.std::vector", %"class.pkpy::stack_no_copy", i32, [4 x i8] }>
%"class.std::shared_ptr" = type { %"class.std::__shared_ptr" }
%"class.std::__shared_ptr" = type { ptr, %"class.std::__shared_count" }
%"class.std::__shared_count" = type { ptr }
%"class.pkpy::stack_no_copy" = type { %"class.pkpy::stack" }
%"class.pkpy::stack" = type { %"class.pkpy::small_vector_2" }
%"class.pkpy::small_vector_2" = type { %"class.pkpy::small_vector" }
%"class.pkpy::small_vector" = type { [32 x i8], ptr, ptr, ptr }
%"class.pkpy::stack_no_copy.3" = type { %"class.pkpy::stack.4" }
%"class.pkpy::stack.4" = type { %"class.std::vector.5" }
%"class.std::vector.5" = type { %"struct.std::_Vector_base.6" }
%"struct.std::_Vector_base.6" = type { %"struct.std::_Vector_base<pkpy::CodeEmitContext, std::allocator<pkpy::CodeEmitContext>>::_Vector_impl" }
%"struct.std::_Vector_base<pkpy::CodeEmitContext, std::allocator<pkpy::CodeEmitContext>>::_Vector_impl" = type { %"struct.std::_Vector_base<pkpy::CodeEmitContext, std::allocator<pkpy::CodeEmitContext>>::_Vector_impl_data" }
%"struct.std::_Vector_base<pkpy::CodeEmitContext, std::allocator<pkpy::CodeEmitContext>>::_Vector_impl_data" = type { ptr, ptr, ptr }
%"class.std::vector" = type { %"struct.std::_Vector_base" }
%"struct.std::_Vector_base" = type { %"struct.std::_Vector_base<pkpy::Token, std::allocator<pkpy::Token>>::_Vector_impl" }
%"struct.std::_Vector_base<pkpy::Token, std::allocator<pkpy::Token>>::_Vector_impl" = type { %"struct.std::_Vector_base<pkpy::Token, std::allocator<pkpy::Token>>::_Vector_impl_data" }
%"struct.std::_Vector_base<pkpy::Token, std::allocator<pkpy::Token>>::_Vector_impl_data" = type { ptr, ptr, ptr }
%"struct.pkpy::Token" = type { i8, ptr, i32, i32, i32, [4 x i8], %"class.std::variant" }
%"class.std::variant" = type { %"struct.std::__detail::__variant::_Variant_base.base", [7 x i8] }
%"struct.std::__detail::__variant::_Variant_base.base" = type { %"struct.std::__detail::__variant::_Move_assign_base.base" }
%"struct.std::__detail::__variant::_Move_assign_base.base" = type { %"struct.std::__detail::__variant::_Copy_assign_base.base" }
%"struct.std::__detail::__variant::_Copy_assign_base.base" = type { %"struct.std::__detail::__variant::_Move_ctor_base.base" }
%"struct.std::__detail::__variant::_Move_ctor_base.base" = type { %"struct.std::__detail::__variant::_Copy_ctor_base.base" }
%"struct.std::__detail::__variant::_Copy_ctor_base.base" = type { %"struct.std::__detail::__variant::_Variant_storage.base" }
%"struct.std::__detail::__variant::_Variant_storage.base" = type <{ %"union.std::__detail::__variant::_Variadic_union", i8 }>
%"union.std::__detail::__variant::_Variadic_union" = type { %"union.std::__detail::__variant::_Variadic_union.18" }
%"union.std::__detail::__variant::_Variadic_union.18" = type { %"union.std::__detail::__variant::_Variadic_union.20" }
%"union.std::__detail::__variant::_Variadic_union.20" = type { %"struct.std::__detail::__variant::_Uninitialized.21", [24 x i8] }
%"struct.std::__detail::__variant::_Uninitialized.21" = type { double }

@.str.106 = private unnamed_addr constant [74 x i8] c"vector::_M_range_check: __n (which is %zu) >= this->size() (which is %zu)\00", align 1

; Function Attrs: mustprogress nounwind uwtable
define linkonce_odr noundef i64 @_ZNKSt6vectorIN4pkpy5TokenESaIS1_EE4sizeEv(ptr noundef nonnull align 8 dereferenceable(24) %0) #5 comdat align 2 {
  %2 = alloca ptr, align 8
  store ptr %0, ptr %2, align 8
  %3 = load ptr, ptr %2, align 8
  %4 = getelementptr inbounds %"struct.std::_Vector_base", ptr %3, i32 0, i32 0
  %5 = getelementptr inbounds %"struct.std::_Vector_base<pkpy::Token, std::allocator<pkpy::Token>>::_Vector_impl_data", ptr %4, i32 0, i32 1
  %6 = load ptr, ptr %5, align 8
  %7 = getelementptr inbounds %"struct.std::_Vector_base", ptr %3, i32 0, i32 0
  %8 = getelementptr inbounds %"struct.std::_Vector_base<pkpy::Token, std::allocator<pkpy::Token>>::_Vector_impl_data", ptr %7, i32 0, i32 0
  %9 = load ptr, ptr %8, align 8
  %10 = ptrtoint ptr %6 to i64
  %11 = ptrtoint ptr %9 to i64
  %12 = sub i64 %10, %11
  %13 = sdiv exact i64 %12, 72
  ret i64 %13
}

; Function Attrs: mustprogress nounwind uwtable
define linkonce_odr noundef nonnull align 8 dereferenceable(72) ptr @_ZNKSt6vectorIN4pkpy5TokenESaIS1_EEixEm(ptr noundef nonnull align 8 dereferenceable(24) %0, i64 noundef %1) #5 comdat align 2 {
  %3 = alloca ptr, align 8
  %4 = alloca i64, align 8
  store ptr %0, ptr %3, align 8
  store i64 %1, ptr %4, align 8
  %5 = load ptr, ptr %3, align 8
  %6 = getelementptr inbounds %"struct.std::_Vector_base", ptr %5, i32 0, i32 0
  %7 = getelementptr inbounds %"struct.std::_Vector_base<pkpy::Token, std::allocator<pkpy::Token>>::_Vector_impl_data", ptr %6, i32 0, i32 0
  %8 = load ptr, ptr %7, align 8
  %9 = load i64, ptr %4, align 8
  %10 = getelementptr inbounds %"struct.pkpy::Token", ptr %8, i64 %9
  ret ptr %10
}

; Function Attrs: mustprogress uwtable
define linkonce_odr void @_ZNKSt6vectorIN4pkpy5TokenESaIS1_EE14_M_range_checkEm(ptr noundef nonnull align 8 dereferenceable(24) %0, i64 noundef %1) #4 comdat align 2 {
  %3 = alloca ptr, align 8
  %4 = alloca i64, align 8
  store ptr %0, ptr %3, align 8
  store i64 %1, ptr %4, align 8
  %5 = load ptr, ptr %3, align 8
  %6 = load i64, ptr %4, align 8
  %7 = call noundef i64 @_ZNKSt6vectorIN4pkpy5TokenESaIS1_EE4sizeEv(ptr noundef nonnull align 8 dereferenceable(24) %5) #3
  %8 = icmp uge i64 %6, %7
  br i1 %8, label %9, label %12

9:                                                ; preds = %2
  %10 = load i64, ptr %4, align 8
  %11 = call noundef i64 @_ZNKSt6vectorIN4pkpy5TokenESaIS1_EE4sizeEv(ptr noundef nonnull align 8 dereferenceable(24) %5) #3
  call void (ptr, ...) @_ZSt24__throw_out_of_range_fmtPKcz(ptr noundef @.str.106, i64 noundef %10, i64 noundef %11) #17
  unreachable

12:                                               ; preds = %2
  ret void
}

; Function Attrs: mustprogress uwtable
define linkonce_odr noundef nonnull align 8 dereferenceable(72) ptr @_ZNKSt6vectorIN4pkpy5TokenESaIS1_EE2atEm(ptr noundef nonnull align 8 dereferenceable(24) %0, i64 noundef %1) #4 comdat align 2 {
  %3 = alloca ptr, align 8
  %4 = alloca i64, align 8
  store ptr %0, ptr %3, align 8
  store i64 %1, ptr %4, align 8
  %5 = load ptr, ptr %3, align 8
  %6 = load i64, ptr %4, align 8
  call void @_ZNKSt6vectorIN4pkpy5TokenESaIS1_EE14_M_range_checkEm(ptr noundef nonnull align 8 dereferenceable(24) %5, i64 noundef %6)
  %7 = load i64, ptr %4, align 8
  %8 = call noundef nonnull align 8 dereferenceable(72) ptr @_ZNKSt6vectorIN4pkpy5TokenESaIS1_EEixEm(ptr noundef nonnull align 8 dereferenceable(24) %5, i64 noundef %7) #3
  ret ptr %8
}

; Function Attrs: mustprogress nounwind uwtable
define linkonce_odr void @_ZN4pkpy8Compiler7advanceEi(ptr noundef nonnull align 8 dereferenceable(200) %0, i32 noundef %1) #5 comdat align 2 {
  %3 = alloca ptr, align 8
  %4 = alloca i32, align 4
  store ptr %0, ptr %3, align 8
  store i32 %1, ptr %4, align 4
  %5 = load ptr, ptr %3, align 8
  %6 = load i32, ptr %4, align 4
  %7 = getelementptr inbounds %"class.pkpy::Compiler", ptr %5, i32 0, i32 4
  %8 = load i32, ptr %7, align 4
  %9 = add nsw i32 %8, %6
  store i32 %9, ptr %7, align 4
  ret void
}

; Function Attrs: mustprogress uwtable
define linkonce_odr noundef nonnull align 8 dereferenceable(72) ptr @_ZNK4pkpy8Compiler4currEv(ptr noundef nonnull align 8 dereferenceable(200) %0) #4 comdat align 2 {
  %2 = alloca ptr, align 8
  store ptr %0, ptr %2, align 8
  %3 = load ptr, ptr %2, align 8
  %4 = getelementptr inbounds %"class.pkpy::Compiler", ptr %3, i32 0, i32 5
  %5 = getelementptr inbounds %"class.pkpy::Compiler", ptr %3, i32 0, i32 4
  %6 = load i32, ptr %5, align 4
  %7 = sext i32 %6 to i64
  %8 = call noundef nonnull align 8 dereferenceable(72) ptr @_ZNKSt6vectorIN4pkpy5TokenESaIS1_EE2atEm(ptr noundef nonnull align 8 dereferenceable(24) %4, i64 noundef %7)
  ret ptr %8
}

; Function Attrs: mustprogress uwtable
define noundef zeroext i1 @_ZN4pkpy8Compiler5matchEh(ptr noundef nonnull align 8 dereferenceable(200) %0, i8 noundef zeroext %1) #4 align 2 {
  %3 = alloca i1, align 1
  %4 = alloca ptr, align 8
  %5 = alloca i8, align 1
  store ptr %0, ptr %4, align 8
  store i8 %1, ptr %5, align 1
  %6 = load ptr, ptr %4, align 8
  %7 = call noundef nonnull align 8 dereferenceable(72) ptr @_ZNK4pkpy8Compiler4currEv(ptr noundef nonnull align 8 dereferenceable(200) %6)
  %8 = getelementptr inbounds %"struct.pkpy::Token", ptr %7, i32 0, i32 0
  %9 = load i8, ptr %8, align 8
  %10 = zext i8 %9 to i32
  %11 = load i8, ptr %5, align 1
  %12 = zext i8 %11 to i32
  %13 = icmp ne i32 %10, %12
  br i1 %13, label %14, label %15

14:                                               ; preds = %2
  store i1 false, ptr %3, align 1
  br label %16

15:                                               ; preds = %2
  call void @_ZN4pkpy8Compiler7advanceEi(ptr noundef nonnull align 8 dereferenceable(200) %6, i32 noundef 1)
  store i1 true, ptr %3, align 1
  br label %16

16:                                               ; preds = %15, %14
  %17 = load i1, ptr %3, align 1
  ret i1 %17
}