; Function Attrs: mustprogress uwtable
define noundef zeroext i1 @_ZN4pkpy8Compiler5matchEh(ptr noundef nonnull align 8 captures(none) dereferenceable(200) %0, i8 noundef zeroext %1) local_unnamed_addr #5 align 2 {
  %3 = getelementptr inbounds nuw i8, ptr %0, i64 176
  %4 = getelementptr inbounds nuw i8, ptr %0, i64 172
  %5 = load i32, ptr %4, align 4
  %6 = sext i32 %5 to i64
  %7 = getelementptr inbounds nuw i8, ptr %0, i64 184
  %8 = load ptr, ptr %7, align 8
  %9 = load ptr, ptr %3, align 8
  %10 = ptrtoint ptr %8 to i64
  %11 = ptrtoint ptr %9 to i64
  %12 = sub i64 %10, %11
  %13 = sdiv exact i64 %12, 72
  %.not.i.i.i = icmp ugt i64 %13, %6
  br i1 %.not.i.i.i, label %_ZNK4pkpy8Compiler4currEv.exit, label %14

14:                                               ; preds = %2
  tail call void (ptr, ...) @_ZSt24__throw_out_of_range_fmtPKcz(ptr noundef nonnull @.str.106, i64 noundef %6, i64 noundef %13) #35
  unreachable

_ZNK4pkpy8Compiler4currEv.exit:                   ; preds = %2
  %15 = getelementptr inbounds %"struct.pkpy::Token", ptr %9, i64 %6
  %16 = load i8, ptr %15, align 8
  %.not = icmp eq i8 %16, %1
  br i1 %.not, label %17, label %19

17:                                               ; preds = %_ZNK4pkpy8Compiler4currEv.exit
  %18 = add nsw i32 %5, 1
  store i32 %18, ptr %4, align 4
  br label %19

19:                                               ; preds = %_ZNK4pkpy8Compiler4currEv.exit, %17
  ret i1 %.not
}